; Function Attrs: nounwind uwtable
define void @ossl_qrl_enc_level_set_discard(ptr noundef %0, i32 noundef %1) local_unnamed_addr #2 {
  %3 = icmp ult i32 %1, 4
  br i1 %3, label %ossl_qrl_enc_level_set_get.exit, label %ossl_qrl_enc_level_set_get.exit.thread, !prof !3

ossl_qrl_enc_level_set_get.exit:                  ; preds = %2
  %4 = zext nneg i32 %1 to i64
  %5 = getelementptr inbounds nuw [4 x %struct.ossl_qrl_enc_level_st], ptr %0, i64 0, i64 %4
  %6 = icmp eq ptr %0, null
  br i1 %6, label %ossl_qrl_enc_level_set_get.exit.thread, label %7

7:                                                ; preds = %ossl_qrl_enc_level_set_get.exit
  %8 = getelementptr inbounds nuw i8, ptr %5, i64 104
  %9 = load i8, ptr %8, align 8, !tbaa !4
  %10 = icmp eq i8 %9, 4
  br i1 %10, label %ossl_qrl_enc_level_set_get.exit.thread, label %11

11:                                               ; preds = %7
  %.off = add i8 %9, -1
  %switch = icmp ult i8 %.off, 3
  br i1 %switch, label %12, label %el_teardown_keyslot.exit16

12:                                               ; preds = %11
  tail call void @ossl_quic_hdr_protector_cleanup(ptr noundef nonnull %5) #6
  %13 = load i8, ptr %8, align 8, !tbaa !4
  switch i8 %13, label %el_teardown_keyslot.exit [
    i8 1, label %ossl_qrl_enc_level_set_has_keyslot.exit.i
    i8 2, label %ossl_qrl_enc_level_set_has_keyslot.exit.i
    i8 3, label %14
  ]

14:                                               ; preds = %12
  %15 = getelementptr inbounds nuw [4 x %struct.ossl_qrl_enc_level_st], ptr %0, i64 0, i64 %4, i32 5
  %16 = load i64, ptr %15, align 8, !tbaa !18
  %17 = and i64 %16, 1
  %18 = icmp eq i64 %17, 0
  br i1 %18, label %ossl_qrl_enc_level_set_has_keyslot.exit.i, label %el_teardown_keyslot.exit.thread

ossl_qrl_enc_level_set_has_keyslot.exit.i:        ; preds = %12, %12, %14
  %19 = getelementptr inbounds nuw i8, ptr %5, i64 48
  %20 = load ptr, ptr %19, align 8, !tbaa !26
  %.not13.i = icmp eq ptr %20, null
  br i1 %.not13.i, label %22, label %21

21:                                               ; preds = %ossl_qrl_enc_level_set_has_keyslot.exit.i
  tail call void @EVP_CIPHER_CTX_free(ptr noundef nonnull %20) #6
  store ptr null, ptr %19, align 8, !tbaa !26
  br label %22

22:                                               ; preds = %21, %ossl_qrl_enc_level_set_has_keyslot.exit.i
  %23 = getelementptr inbounds nuw i8, ptr %5, i64 106
  tail call void @OPENSSL_cleanse(ptr noundef nonnull %23, i64 noundef 16) #6
  %.pre = load i8, ptr %8, align 8, !tbaa !4
  br label %el_teardown_keyslot.exit

el_teardown_keyslot.exit:                         ; preds = %22, %12
  %24 = phi i8 [ %.pre, %22 ], [ %13, %12 ]
  switch i8 %24, label %el_teardown_keyslot.exit16 [
    i8 1, label %ossl_qrl_enc_level_set_has_keyslot.exit.i15
    i8 2, label %ossl_qrl_enc_level_set_has_keyslot.exit.i15
    i8 3, label %el_teardown_keyslot.exit.thread
  ]

el_teardown_keyslot.exit.thread:                  ; preds = %14, %el_teardown_keyslot.exit
  %25 = getelementptr inbounds nuw [4 x %struct.ossl_qrl_enc_level_st], ptr %0, i64 0, i64 %4, i32 5
  %26 = load i64, ptr %25, align 8, !tbaa !18
  %27 = and i64 %26, 1
  %.not = icmp eq i64 %27, 0
  br i1 %.not, label %el_teardown_keyslot.exit16, label %29

ossl_qrl_enc_level_set_has_keyslot.exit.i15:      ; preds = %el_teardown_keyslot.exit, %el_teardown_keyslot.exit
  %28 = icmp eq i32 %1, 3
  br i1 %28, label %29, label %el_teardown_keyslot.exit16

29:                                               ; preds = %ossl_qrl_enc_level_set_has_keyslot.exit.i15, %el_teardown_keyslot.exit.thread
  %30 = getelementptr inbounds nuw i8, ptr %5, i64 56
  %31 = load ptr, ptr %30, align 8, !tbaa !26
  %.not13.i14 = icmp eq ptr %31, null
  br i1 %.not13.i14, label %33, label %32

32:                                               ; preds = %29
  tail call void @EVP_CIPHER_CTX_free(ptr noundef nonnull %31) #6
  store ptr null, ptr %30, align 8, !tbaa !26
  br label %33

33:                                               ; preds = %32, %29
  %34 = getelementptr inbounds nuw i8, ptr %5, i64 122
  tail call void @OPENSSL_cleanse(ptr noundef nonnull %34, i64 noundef 16) #6
  br label %el_teardown_keyslot.exit16

el_teardown_keyslot.exit16:                       ; preds = %11, %33, %ossl_qrl_enc_level_set_has_keyslot.exit.i15, %el_teardown_keyslot.exit.thread, %el_teardown_keyslot.exit
  %35 = getelementptr inbounds nuw i8, ptr %5, i64 40
  %36 = load ptr, ptr %35, align 8, !tbaa !21
  tail call void @EVP_MD_free(ptr noundef %36) #6
  store ptr null, ptr %35, align 8, !tbaa !21
  store i8 4, ptr %8, align 8, !tbaa !4
  br label %ossl_qrl_enc_level_set_get.exit.thread

ossl_qrl_enc_level_set_get.exit.thread:           ; preds = %2, %ossl_qrl_enc_level_set_get.exit, %7, %el_teardown_keyslot.exit16
  ret void
}